target datalayout = "e-m:e-p270:32:32-p271:32:32-p272:64:64-i64:64-i128:128-f80:128-n8:16:32:64-S128"
target triple = "x86_64-pc-linux-gnu"

%struct.Abc_TtHieMan_t_ = type { i32, i32, [5 x ptr], [5 x ptr], [5 x i32], ptr }
%struct.Vec_Mem_t_ = type { i32, i32, i32, i32, i32, i32, ptr, ptr, ptr }
%struct.Vec_Int_t_ = type { i32, i32, ptr }

; Function Attrs: inlinehint nounwind uwtable
define internal void @Vec_MemFree(ptr noundef %0) #2 {
  %2 = alloca ptr, align 8
  %3 = alloca i32, align 4
  store ptr %0, ptr %2, align 8, !tbaa !80
  call void @llvm.lifetime.start.p0(i64 4, ptr %3) #12
  store i32 0, ptr %3, align 4, !tbaa !8
  br label %4

4:                                                ; preds = %35, %1
  %5 = load i32, ptr %3, align 4, !tbaa !8
  %6 = load ptr, ptr %2, align 8, !tbaa !80
  %7 = getelementptr inbounds nuw %struct.Vec_Mem_t_, ptr %6, i32 0, i32 5
  %8 = load i32, ptr %7, align 4, !tbaa !90
  %9 = icmp sle i32 %5, %8
  br i1 %9, label %10, label %38

10:                                               ; preds = %4
  %11 = load ptr, ptr %2, align 8, !tbaa !80
  %12 = getelementptr inbounds nuw %struct.Vec_Mem_t_, ptr %11, i32 0, i32 6
  %13 = load ptr, ptr %12, align 8, !tbaa !103
  %14 = load i32, ptr %3, align 4, !tbaa !8
  %15 = sext i32 %14 to i64
  %16 = getelementptr inbounds ptr, ptr %13, i64 %15
  %17 = load ptr, ptr %16, align 8, !tbaa !3
  %18 = icmp ne ptr %17, null
  br i1 %18, label %19, label %33

19:                                               ; preds = %10
  %20 = load ptr, ptr %2, align 8, !tbaa !80
  %21 = getelementptr inbounds nuw %struct.Vec_Mem_t_, ptr %20, i32 0, i32 6
  %22 = load ptr, ptr %21, align 8, !tbaa !103
  %23 = load i32, ptr %3, align 4, !tbaa !8
  %24 = sext i32 %23 to i64
  %25 = getelementptr inbounds ptr, ptr %22, i64 %24
  %26 = load ptr, ptr %25, align 8, !tbaa !3
  call void @free(ptr noundef %26) #12
  %27 = load ptr, ptr %2, align 8, !tbaa !80
  %28 = getelementptr inbounds nuw %struct.Vec_Mem_t_, ptr %27, i32 0, i32 6
  %29 = load ptr, ptr %28, align 8, !tbaa !103
  %30 = load i32, ptr %3, align 4, !tbaa !8
  %31 = sext i32 %30 to i64
  %32 = getelementptr inbounds ptr, ptr %29, i64 %31
  store ptr null, ptr %32, align 8, !tbaa !3
  br label %34

33:                                               ; preds = %10
  br label %34

34:                                               ; preds = %33, %19
  br label %35

35:                                               ; preds = %34
  %36 = load i32, ptr %3, align 4, !tbaa !8
  %37 = add nsw i32 %36, 1
  store i32 %37, ptr %3, align 4, !tbaa !8
  br label %4, !llvm.loop !167

38:                                               ; preds = %4
  %39 = load ptr, ptr %2, align 8, !tbaa !80
  %40 = getelementptr inbounds nuw %struct.Vec_Mem_t_, ptr %39, i32 0, i32 6
  %41 = load ptr, ptr %40, align 8, !tbaa !103
  %42 = icmp ne ptr %41, null
  br i1 %42, label %43, label %49

43:                                               ; preds = %38
  %44 = load ptr, ptr %2, align 8, !tbaa !80
  %45 = getelementptr inbounds nuw %struct.Vec_Mem_t_, ptr %44, i32 0, i32 6
  %46 = load ptr, ptr %45, align 8, !tbaa !103
  call void @free(ptr noundef %46) #12
  %47 = load ptr, ptr %2, align 8, !tbaa !80
  %48 = getelementptr inbounds nuw %struct.Vec_Mem_t_, ptr %47, i32 0, i32 6
  store ptr null, ptr %48, align 8, !tbaa !103
  br label %50

49:                                               ; preds = %38
  br label %50

50:                                               ; preds = %49, %43
  %51 = load ptr, ptr %2, align 8, !tbaa !80
  %52 = icmp ne ptr %51, null
  br i1 %52, label %53, label %55

53:                                               ; preds = %50
  %54 = load ptr, ptr %2, align 8, !tbaa !80
  call void @free(ptr noundef %54) #12
  store ptr null, ptr %2, align 8, !tbaa !80
  br label %56

55:                                               ; preds = %50
  br label %56

56:                                               ; preds = %55, %53
  call void @llvm.lifetime.end.p0(i64 4, ptr %3) #12
  ret void
}

; Function Attrs: inlinehint nounwind uwtable
define internal void @Vec_IntFreeP(ptr noundef %0) #2 {
  %2 = alloca ptr, align 8
  store ptr %0, ptr %2, align 8, !tbaa !165
  %3 = load ptr, ptr %2, align 8, !tbaa !165
  %4 = load ptr, ptr %3, align 8, !tbaa !82
  %5 = icmp eq ptr %4, null
  br i1 %5, label %6, label %7

6:                                                ; preds = %1
  br label %32

7:                                                ; preds = %1
  %8 = load ptr, ptr %2, align 8, !tbaa !165
  %9 = load ptr, ptr %8, align 8, !tbaa !82
  %10 = getelementptr inbounds nuw %struct.Vec_Int_t_, ptr %9, i32 0, i32 2
  %11 = load ptr, ptr %10, align 8, !tbaa !96
  %12 = icmp ne ptr %11, null
  br i1 %12, label %13, label %21

13:                                               ; preds = %7
  %14 = load ptr, ptr %2, align 8, !tbaa !165
  %15 = load ptr, ptr %14, align 8, !tbaa !82
  %16 = getelementptr inbounds nuw %struct.Vec_Int_t_, ptr %15, i32 0, i32 2
  %17 = load ptr, ptr %16, align 8, !tbaa !96
  call void @free(ptr noundef %17) #12
  %18 = load ptr, ptr %2, align 8, !tbaa !165
  %19 = load ptr, ptr %18, align 8, !tbaa !82
  %20 = getelementptr inbounds nuw %struct.Vec_Int_t_, ptr %19, i32 0, i32 2
  store ptr null, ptr %20, align 8, !tbaa !96
  br label %22

21:                                               ; preds = %7
  br label %22

22:                                               ; preds = %21, %13
  %23 = load ptr, ptr %2, align 8, !tbaa !165
  %24 = load ptr, ptr %23, align 8, !tbaa !82
  %25 = icmp ne ptr %24, null
  br i1 %25, label %26, label %30

26:                                               ; preds = %22
  %27 = load ptr, ptr %2, align 8, !tbaa !165
  %28 = load ptr, ptr %27, align 8, !tbaa !82
  call void @free(ptr noundef %28) #12
  %29 = load ptr, ptr %2, align 8, !tbaa !165
  store ptr null, ptr %29, align 8, !tbaa !82
  br label %31

30:                                               ; preds = %22
  br label %31

31:                                               ; preds = %30, %26
  br label %32

32:                                               ; preds = %31, %6
  ret void
}

; Function Attrs: inlinehint nounwind uwtable
define internal void @Vec_IntFree(ptr noundef %0) #2 {
  %2 = alloca ptr, align 8
  store ptr %0, ptr %2, align 8, !tbaa !82
  %3 = load ptr, ptr %2, align 8, !tbaa !82
  %4 = getelementptr inbounds nuw %struct.Vec_Int_t_, ptr %3, i32 0, i32 2
  %5 = load ptr, ptr %4, align 8, !tbaa !96
  %6 = icmp ne ptr %5, null
  br i1 %6, label %7, label %13

7:                                                ; preds = %1
  %8 = load ptr, ptr %2, align 8, !tbaa !82
  %9 = getelementptr inbounds nuw %struct.Vec_Int_t_, ptr %8, i32 0, i32 2
  %10 = load ptr, ptr %9, align 8, !tbaa !96
  call void @free(ptr noundef %10) #12
  %11 = load ptr, ptr %2, align 8, !tbaa !82
  %12 = getelementptr inbounds nuw %struct.Vec_Int_t_, ptr %11, i32 0, i32 2
  store ptr null, ptr %12, align 8, !tbaa !96
  br label %14

13:                                               ; preds = %1
  br label %14

14:                                               ; preds = %13, %7
  %15 = load ptr, ptr %2, align 8, !tbaa !82
  %16 = icmp ne ptr %15, null
  br i1 %16, label %17, label %19

17:                                               ; preds = %14
  %18 = load ptr, ptr %2, align 8, !tbaa !82
  call void @free(ptr noundef %18) #12
  store ptr null, ptr %2, align 8, !tbaa !82
  br label %20

19:                                               ; preds = %14
  br label %20

20:                                               ; preds = %19, %17
  ret void
}

; Function Attrs: inlinehint nounwind uwtable
define internal void @Vec_MemFreeP(ptr noundef %0) #2 {
  %2 = alloca ptr, align 8
  store ptr %0, ptr %2, align 8, !tbaa !98
  %3 = load ptr, ptr %2, align 8, !tbaa !98
  %4 = load ptr, ptr %3, align 8, !tbaa !80
  %5 = icmp eq ptr %4, null
  br i1 %5, label %6, label %7

6:                                                ; preds = %1
  br label %11

7:                                                ; preds = %1
  %8 = load ptr, ptr %2, align 8, !tbaa !98
  %9 = load ptr, ptr %8, align 8, !tbaa !80
  call void @Vec_MemFree(ptr noundef %9)
  %10 = load ptr, ptr %2, align 8, !tbaa !98
  store ptr null, ptr %10, align 8, !tbaa !80
  br label %11

11:                                               ; preds = %7, %6
  ret void
}

; Function Attrs: inlinehint nounwind uwtable
define internal void @Vec_MemHashFree(ptr noundef %0) #2 {
  %2 = alloca ptr, align 8
  store ptr %0, ptr %2, align 8, !tbaa !80
  %3 = load ptr, ptr %2, align 8, !tbaa !80
  %4 = icmp eq ptr %3, null
  br i1 %4, label %5, label %6

5:                                                ; preds = %1
  br label %11

6:                                                ; preds = %1
  %7 = load ptr, ptr %2, align 8, !tbaa !80
  %8 = getelementptr inbounds nuw %struct.Vec_Mem_t_, ptr %7, i32 0, i32 7
  call void @Vec_IntFreeP(ptr noundef %8)
  %9 = load ptr, ptr %2, align 8, !tbaa !80
  %10 = getelementptr inbounds nuw %struct.Vec_Mem_t_, ptr %9, i32 0, i32 8
  call void @Vec_IntFreeP(ptr noundef %10)
  br label %11

11:                                               ; preds = %6, %5
  ret void
}

; Function Attrs: nounwind uwtable
define void @Abc_TtHieManStop(ptr noundef %0) #0 {
  %2 = alloca ptr, align 8
  %3 = alloca i32, align 4
  store ptr %0, ptr %2, align 8, !tbaa !74
  call void @llvm.lifetime.start.p0(i64 4, ptr %3) #12
  store i32 0, ptr %3, align 4, !tbaa !8
  br label %4

4:                                                ; preds = %28, %1
  %5 = load i32, ptr %3, align 4, !tbaa !8
  %6 = load ptr, ptr %2, align 8, !tbaa !74
  %7 = getelementptr inbounds nuw %struct.Abc_TtHieMan_t_, ptr %6, i32 0, i32 0
  %8 = load i32, ptr %7, align 8, !tbaa !76
  %9 = icmp sle i32 %5, %8
  br i1 %9, label %10, label %31

10:                                               ; preds = %4
  %11 = load ptr, ptr %2, align 8, !tbaa !74
  %12 = getelementptr inbounds nuw %struct.Abc_TtHieMan_t_, ptr %11, i32 0, i32 2
  %13 = load i32, ptr %3, align 4, !tbaa !8
  %14 = sext i32 %13 to i64
  %15 = getelementptr inbounds [5 x ptr], ptr %12, i64 0, i64 %14
  %16 = load ptr, ptr %15, align 8, !tbaa !80
  call void @Vec_MemHashFree(ptr noundef %16)
  %17 = load ptr, ptr %2, align 8, !tbaa !74
  %18 = getelementptr inbounds nuw %struct.Abc_TtHieMan_t_, ptr %17, i32 0, i32 2
  %19 = load i32, ptr %3, align 4, !tbaa !8
  %20 = sext i32 %19 to i64
  %21 = getelementptr inbounds [5 x ptr], ptr %18, i64 0, i64 %20
  call void @Vec_MemFreeP(ptr noundef %21)
  %22 = load ptr, ptr %2, align 8, !tbaa !74
  %23 = getelementptr inbounds nuw %struct.Abc_TtHieMan_t_, ptr %22, i32 0, i32 3
  %24 = load i32, ptr %3, align 4, !tbaa !8
  %25 = sext i32 %24 to i64
  %26 = getelementptr inbounds [5 x ptr], ptr %23, i64 0, i64 %25
  %27 = load ptr, ptr %26, align 8, !tbaa !82
  call void @Vec_IntFree(ptr noundef %27)
  br label %28

28:                                               ; preds = %10
  %29 = load i32, ptr %3, align 4, !tbaa !8
  %30 = add nsw i32 %29, 1
  store i32 %30, ptr %3, align 4, !tbaa !8
  br label %4, !llvm.loop !97

31:                                               ; preds = %4
  %32 = load ptr, ptr %2, align 8, !tbaa !74
  %33 = getelementptr inbounds nuw %struct.Abc_TtHieMan_t_, ptr %32, i32 0, i32 5
  %34 = load ptr, ptr %33, align 8, !tbaa !84
  call void @Vec_IntFree(ptr noundef %34)
  %35 = load ptr, ptr %2, align 8, !tbaa !74
  %36 = icmp ne ptr %35, null
  br i1 %36, label %37, label %39

37:                                               ; preds = %31
  %38 = load ptr, ptr %2, align 8, !tbaa !74
  call void @free(ptr noundef %38) #12
  store ptr null, ptr %2, align 8, !tbaa !74
  br label %40

39:                                               ; preds = %31
  br label %40

40:                                               ; preds = %39, %37
  call void @llvm.lifetime.end.p0(i64 4, ptr %3) #12
  ret void
}