; Function Attrs: nounwind uwtable
define void @Abc_TtHieManStop(ptr noundef captures(none) %0) local_unnamed_addr #11 {
  %2 = load i32, ptr %0, align 8, !tbaa !62
  %.not13 = icmp slt i32 %2, 0
  br i1 %.not13, label %._crit_edge, label %.lr.ph

.lr.ph:                                           ; preds = %1
  %3 = getelementptr inbounds nuw i8, ptr %0, i64 8
  %4 = getelementptr inbounds nuw i8, ptr %0, i64 48
  br label %5

5:                                                ; preds = %.lr.ph, %Vec_IntFree.exit
  %indvars.iv = phi i64 [ 0, %.lr.ph ], [ %indvars.iv.next, %Vec_IntFree.exit ]
  %6 = getelementptr inbounds nuw [5 x ptr], ptr %3, i64 0, i64 %indvars.iv
  %7 = load ptr, ptr %6, align 8, !tbaa !73
  %8 = icmp eq ptr %7, null
  br i1 %8, label %Vec_MemFreeP.exit, label %9

9:                                                ; preds = %5
  %10 = getelementptr inbounds nuw i8, ptr %7, i64 32
  %11 = load ptr, ptr %10, align 8, !tbaa !84
  %12 = icmp eq ptr %11, null
  br i1 %12, label %Vec_IntFreeP.exit.i, label %13

13:                                               ; preds = %9
  %14 = getelementptr inbounds nuw i8, ptr %11, i64 8
  %15 = load ptr, ptr %14, align 8, !tbaa !80
  %.not.i.i = icmp eq ptr %15, null
  br i1 %.not.i.i, label %18, label %.thread.i.i

.thread.i.i:                                      ; preds = %13
  tail call void @free(ptr noundef nonnull %15) #21
  %16 = load ptr, ptr %10, align 8, !tbaa !84
  %17 = getelementptr inbounds nuw i8, ptr %16, i64 8
  store ptr null, ptr %17, align 8, !tbaa !80
  br label %18

18:                                               ; preds = %.thread.i.i, %13
  %19 = phi ptr [ %16, %.thread.i.i ], [ %11, %13 ]
  tail call void @free(ptr noundef nonnull %19) #21
  store ptr null, ptr %10, align 8, !tbaa !84
  br label %Vec_IntFreeP.exit.i

Vec_IntFreeP.exit.i:                              ; preds = %18, %9
  %20 = getelementptr inbounds nuw i8, ptr %7, i64 40
  %21 = load ptr, ptr %20, align 8, !tbaa !84
  %22 = icmp eq ptr %21, null
  br i1 %22, label %Vec_MemHashFree.exit, label %23

23:                                               ; preds = %Vec_IntFreeP.exit.i
  %24 = getelementptr inbounds nuw i8, ptr %21, i64 8
  %25 = load ptr, ptr %24, align 8, !tbaa !80
  %.not.i3.i = icmp eq ptr %25, null
  br i1 %.not.i3.i, label %28, label %.thread.i4.i

.thread.i4.i:                                     ; preds = %23
  tail call void @free(ptr noundef nonnull %25) #21
  %26 = load ptr, ptr %20, align 8, !tbaa !84
  %27 = getelementptr inbounds nuw i8, ptr %26, i64 8
  store ptr null, ptr %27, align 8, !tbaa !80
  br label %28

28:                                               ; preds = %.thread.i4.i, %23
  %29 = phi ptr [ %26, %.thread.i4.i ], [ %21, %23 ]
  tail call void @free(ptr noundef nonnull %29) #21
  store ptr null, ptr %20, align 8, !tbaa !84
  br label %Vec_MemHashFree.exit

Vec_MemHashFree.exit:                             ; preds = %Vec_IntFreeP.exit.i, %28
  %.pr = load ptr, ptr %6, align 8, !tbaa !73
  %30 = icmp eq ptr %.pr, null
  br i1 %30, label %Vec_MemFreeP.exit, label %31

31:                                               ; preds = %Vec_MemHashFree.exit
  %32 = getelementptr inbounds nuw i8, ptr %.pr, i64 20
  %33 = load i32, ptr %32, align 4, !tbaa !72
  %.not18.i.i = icmp slt i32 %33, 0
  %.phi.trans.insert.i.i = getelementptr inbounds nuw i8, ptr %.pr, i64 24
  %.pre22.i.i = load ptr, ptr %.phi.trans.insert.i.i, align 8, !tbaa !87
  br i1 %.not18.i.i, label %._crit_edge.i.i, label %.lr.ph.i.i

.lr.ph.i.i:                                       ; preds = %31, %41
  %34 = phi i32 [ %42, %41 ], [ %33, %31 ]
  %35 = phi ptr [ %43, %41 ], [ %.pre22.i.i, %31 ]
  %indvars.iv.i.i = phi i64 [ %indvars.iv.next.i.i, %41 ], [ 0, %31 ]
  %36 = getelementptr inbounds nuw ptr, ptr %35, i64 %indvars.iv.i.i
  %37 = load ptr, ptr %36, align 8, !tbaa !88
  %.not17.i.i = icmp eq ptr %37, null
  br i1 %.not17.i.i, label %41, label %38

38:                                               ; preds = %.lr.ph.i.i
  tail call void @free(ptr noundef nonnull %37) #21
  %39 = load ptr, ptr %.phi.trans.insert.i.i, align 8, !tbaa !87
  %40 = getelementptr inbounds nuw ptr, ptr %39, i64 %indvars.iv.i.i
  store ptr null, ptr %40, align 8, !tbaa !88
  %.pre21.i.i = load i32, ptr %32, align 4, !tbaa !72
  br label %41

41:                                               ; preds = %38, %.lr.ph.i.i
  %42 = phi i32 [ %.pre21.i.i, %38 ], [ %34, %.lr.ph.i.i ]
  %43 = phi ptr [ %39, %38 ], [ %35, %.lr.ph.i.i ]
  %indvars.iv.next.i.i = add nuw nsw i64 %indvars.iv.i.i, 1
  %44 = sext i32 %42 to i64
  %.not.not.i.i = icmp slt i64 %indvars.iv.i.i, %44
  br i1 %.not.not.i.i, label %.lr.ph.i.i, label %._crit_edge.thread.i.i, !llvm.loop !90

._crit_edge.i.i:                                  ; preds = %31
  %.not16.i.i = icmp eq ptr %.pre22.i.i, null
  br i1 %.not16.i.i, label %Vec_MemFree.exit.i, label %._crit_edge.thread.i.i

._crit_edge.thread.i.i:                           ; preds = %41, %._crit_edge.i.i
  %45 = phi ptr [ %.pre22.i.i, %._crit_edge.i.i ], [ %43, %41 ]
  tail call void @free(ptr noundef nonnull %45) #21
  br label %Vec_MemFree.exit.i

Vec_MemFree.exit.i:                               ; preds = %._crit_edge.thread.i.i, %._crit_edge.i.i
  tail call void @free(ptr noundef nonnull %.pr) #21
  store ptr null, ptr %6, align 8, !tbaa !73
  br label %Vec_MemFreeP.exit

Vec_MemFreeP.exit:                                ; preds = %5, %Vec_MemHashFree.exit, %Vec_MemFree.exit.i
  %46 = getelementptr inbounds nuw [5 x ptr], ptr %4, i64 0, i64 %indvars.iv
  %47 = load ptr, ptr %46, align 8, !tbaa !84
  %48 = getelementptr inbounds nuw i8, ptr %47, i64 8
  %49 = load ptr, ptr %48, align 8, !tbaa !80
  %.not.i = icmp eq ptr %49, null
  br i1 %.not.i, label %Vec_IntFree.exit, label %50

50:                                               ; preds = %Vec_MemFreeP.exit
  tail call void @free(ptr noundef nonnull %49) #21
  br label %Vec_IntFree.exit

Vec_IntFree.exit:                                 ; preds = %Vec_MemFreeP.exit, %50
  tail call void @free(ptr noundef nonnull %47) #21
  %indvars.iv.next = add nuw nsw i64 %indvars.iv, 1
  %51 = load i32, ptr %0, align 8, !tbaa !62
  %52 = sext i32 %51 to i64
  %.not.not = icmp slt i64 %indvars.iv, %52
  br i1 %.not.not, label %5, label %._crit_edge, !llvm.loop !91

._crit_edge:                                      ; preds = %Vec_IntFree.exit, %1
  %53 = getelementptr inbounds nuw i8, ptr %0, i64 112
  %54 = load ptr, ptr %53, align 8, !tbaa !86
  %55 = getelementptr inbounds nuw i8, ptr %54, i64 8
  %56 = load ptr, ptr %55, align 8, !tbaa !80
  %.not.i11 = icmp eq ptr %56, null
  br i1 %.not.i11, label %Vec_IntFree.exit12, label %57

57:                                               ; preds = %._crit_edge
  tail call void @free(ptr noundef nonnull %56) #21
  br label %Vec_IntFree.exit12

Vec_IntFree.exit12:                               ; preds = %._crit_edge, %57
  tail call void @free(ptr noundef nonnull %54) #21
  tail call void @free(ptr noundef nonnull %0) #21
  ret void
}